; Function Attrs: nounwind uwtable
define ptr @l_Lean_RBNode_insert___at_Lean_Widget_ExprDiff_insertBeforeChange___spec__1(ptr noundef %0, ptr noundef %1, i8 noundef zeroext %2) local_unnamed_addr #0 {
  %4 = tail call zeroext i8 @l_Lean_RBNode_isRed___rarg(ptr noundef %0) #7
  %5 = icmp eq i8 %4, 0
  %6 = tail call ptr @l_Lean_RBNode_ins___at_Lean_Widget_ExprDiff_insertBeforeChange___spec__2(ptr noundef %0, ptr noundef %1, i8 noundef zeroext %2)
  br i1 %5, label %9, label %7

7:                                                ; preds = %3
  %8 = tail call ptr @l_Lean_RBNode_setBlack___rarg(ptr noundef %6) #7
  br label %9

9:                                                ; preds = %3, %7
  %.0 = phi ptr [ %8, %7 ], [ %6, %3 ]
  ret ptr %.0
}